; Function Attrs: mustprogress uwtable
define internal void @_ZNK19OpenColorIO_v2_4dev12_GLOBAL__N_120GradingPrimaryWriter13getAttributesERSt6vectorISt4pairINSt7__cxx1112basic_stringIcSt11char_traitsIcESaIcEEES9_ESaISA_EE(ptr noundef nonnull align 8 dereferenceable(40) %this, ptr noundef nonnull align 8 dereferenceable(24) %attributes) unnamed_addr #4 align 2 personality ptr @__gxx_personality_v0 {
entry:
  %styleStr = alloca ptr, align 8
  %ref.tmp = alloca %"struct.std::pair", align 8
  tail call void @_ZNK19OpenColorIO_v2_4dev12_GLOBAL__N_18OpWriter13getAttributesERSt6vectorISt4pairINSt7__cxx1112basic_stringIcSt11char_traitsIcESaIcEEES9_ESaISA_EE(ptr noundef nonnull align 8 dereferenceable(24) %this, ptr noundef nonnull align 8 dereferenceable(24) %attributes)
  %m_primary = getelementptr inbounds i8, ptr %this, i64 24
  %0 = load ptr, ptr %m_primary, align 8
  %m_style.i = getelementptr inbounds i8, ptr %0, i64 168
  %1 = load i32, ptr %m_style.i, align 8
  %call5 = tail call noundef i32 @_ZNK19OpenColorIO_v2_4dev20GradingPrimaryOpData12getDirectionEv(ptr noundef nonnull align 8 dereferenceable(192) %0) #25
  %call6 = tail call noundef ptr @_ZN19OpenColorIO_v2_4dev33ConvertGradingStyleAndDirToStringENS_12GradingStyleENS_18TransformDirectionE(i32 noundef %1, i32 noundef %call5)
  store ptr %call6, ptr %styleStr, align 8
  call void @_ZNSt4pairINSt7__cxx1112basic_stringIcSt11char_traitsIcESaIcEEES5_EC2IRA6_KcRKPS8_TnNSt9enable_ifIXaaclsr5_PCCPE22_MoveConstructiblePairIT_T0_EEclsr5_PCCPE30_ImplicitlyMoveConvertiblePairISF_SG_EEEbE4typeELb1EEEOSF_OSG_(ptr noundef nonnull align 8 dereferenceable(64) %ref.tmp, ptr noundef nonnull align 1 dereferenceable(6) @_ZN19OpenColorIO_v2_4devL10ATTR_STYLEE, ptr noundef nonnull align 8 dereferenceable(8) %styleStr)
  %_M_finish.i.i = getelementptr inbounds i8, ptr %attributes, i64 8
  %2 = load ptr, ptr %_M_finish.i.i, align 8
  %_M_end_of_storage.i.i = getelementptr inbounds i8, ptr %attributes, i64 16
  %3 = load ptr, ptr %_M_end_of_storage.i.i, align 8
  %cmp.not.i.i = icmp eq ptr %2, %3
  br i1 %cmp.not.i.i, label %if.else.i.i, label %if.then.i.i

if.then.i.i:                                      ; preds = %entry
  call void @_ZNSt7__cxx1112basic_stringIcSt11char_traitsIcESaIcEEC1EOS4_(ptr noundef nonnull align 8 dereferenceable(32) %2, ptr noundef nonnull align 8 dereferenceable(32) %ref.tmp) #25
  %second.i.i.i.i.i = getelementptr inbounds i8, ptr %2, i64 32
  %second3.i.i.i.i.i = getelementptr inbounds i8, ptr %ref.tmp, i64 32
  call void @_ZNSt7__cxx1112basic_stringIcSt11char_traitsIcESaIcEEC1EOS4_(ptr noundef nonnull align 8 dereferenceable(32) %second.i.i.i.i.i, ptr noundef nonnull align 8 dereferenceable(32) %second3.i.i.i.i.i) #25
  %4 = load ptr, ptr %_M_finish.i.i, align 8
  %incdec.ptr.i.i = getelementptr inbounds i8, ptr %4, i64 64
  store ptr %incdec.ptr.i.i, ptr %_M_finish.i.i, align 8
  br label %invoke.cont

if.else.i.i:                                      ; preds = %entry
  invoke void @_ZNSt6vectorISt4pairINSt7__cxx1112basic_stringIcSt11char_traitsIcESaIcEEES6_ESaIS7_EE17_M_realloc_insertIJS7_EEEvN9__gnu_cxx17__normal_iteratorIPS7_S9_EEDpOT_(ptr noundef nonnull align 8 dereferenceable(24) %attributes, ptr %2, ptr noundef nonnull align 8 dereferenceable(64) %ref.tmp)
          to label %invoke.cont unwind label %lpad

invoke.cont:                                      ; preds = %if.then.i.i, %if.else.i.i
  %second.i = getelementptr inbounds i8, ptr %ref.tmp, i64 32
  call void @_ZNSt7__cxx1112basic_stringIcSt11char_traitsIcESaIcEED1Ev(ptr noundef nonnull align 8 dereferenceable(32) %second.i) #25
  call void @_ZNSt7__cxx1112basic_stringIcSt11char_traitsIcESaIcEED1Ev(ptr noundef nonnull align 8 dereferenceable(32) %ref.tmp) #25
  ret void

lpad:                                             ; preds = %if.else.i.i
  %5 = landingpad { ptr, i32 }
          cleanup
  %second.i2 = getelementptr inbounds i8, ptr %ref.tmp, i64 32
  call void @_ZNSt7__cxx1112basic_stringIcSt11char_traitsIcESaIcEED1Ev(ptr noundef nonnull align 8 dereferenceable(32) %second.i2) #25
  call void @_ZNSt7__cxx1112basic_stringIcSt11char_traitsIcESaIcEED1Ev(ptr noundef nonnull align 8 dereferenceable(32) %ref.tmp) #25
  resume { ptr, i32 } %5
}